target datalayout = "e-m:e-p270:32:32-p271:32:32-p272:64:64-i64:64-i128:128-f80:128-n8:16:32:64-S128"
target triple = "x86_64-pc-linux-gnu"

%struct.timeval = type { i64, i64 }
%union.pthread_mutex_t = type { %struct.__pthread_mutex_s }
%struct.__pthread_mutex_s = type { i32, i32, i32, i32, i32, i16, i16, %struct.__pthread_internal_list }
%struct.__pthread_internal_list = type { ptr, ptr }
%struct.event = type { %struct.event_callback, %union.anon.1, i32, ptr, %union.anon.3, i16, i16, %struct.timeval }
%struct.event_callback = type { %struct.anon.0, i16, i8, i8, %union.anon, ptr }
%struct.anon.0 = type { ptr, ptr }
%union.anon = type { ptr }
%union.anon.1 = type { %struct.anon.2 }
%struct.anon.2 = type { ptr, ptr }
%union.anon.3 = type { %struct.anon.4 }
%struct.anon.4 = type { %struct.anon.5, %struct.timeval }
%struct.anon.5 = type { ptr, ptr }
%struct.conn = type { ptr, i32, i8, i8, i8, i8, i8, i8, i8, i8, ptr, i32, i32, i32, %struct.event, i16, i16, ptr, ptr, i32, i32, ptr, ptr, ptr, i32, ptr, i32, i32, i32, i32, i32, i32, i32, %struct.sockaddr_in6, i32, i8, %struct.anon.9, %union.protocol_binary_request_header, i64, i64, i16, i32, i32, ptr, ptr, ptr, ptr, ptr, ptr }
%struct.sockaddr_in6 = type { i16, i16, i32, %struct.in6_addr, i32 }
%struct.in6_addr = type { %union.anon.8 }
%union.anon.8 = type { [4 x i32] }
%struct.anon.9 = type { ptr, i64, i64 }
%union.protocol_binary_request_header = type { %struct.anon.10 }
%struct.anon.10 = type { i8, i8, i16, i8, i8, i16, i32, i32, i64 }
%struct.LIBEVENT_THREAD = type { i64, ptr, %struct.thread_notify, %struct.thread_notify, %union.pthread_mutex_t, %struct.iop_head_s, i32, i32, i32, %struct.thread_stats, [3 x %struct.io_queue_s], ptr, ptr, ptr, ptr, ptr, ptr, ptr, i32 }
%struct.thread_notify = type { %struct.event, i32 }
%struct.iop_head_s = type { ptr, ptr }
%struct.thread_stats = type { %union.pthread_mutex_t, i64, i64, i64, i64, i64, i64, i64, i64, i64, i64, i64, i64, i64, i64, i64, i64, i64, i64, i64, i64, i64, i64, i64, i64, i64, i64, i64, i64, i64, i64, [64 x %struct.slab_stats], [256 x i64], i64, i64, i64 }
%struct.slab_stats = type { i64, i64, i64, i64, i64, i64, i64, i64 }
%struct.io_queue_s = type { ptr, %struct.iop_head_s, ptr, i32 }
%struct._io_pending_t = type { i8, i8, i8, ptr, ptr, ptr, ptr, ptr, %struct.anon.11, [120 x i8] }
%struct.anon.11 = type { ptr }
%struct._mc_resp = type { ptr, ptr, i32, i32, ptr, ptr, ptr, [4 x %struct.iovec], i32, i8, i8, i8, i8, i8, i16, i16, i16, %struct.sockaddr_in6, i32, [1024 x i8] }
%struct.iovec = type { ptr, i64 }

@stderr = external global ptr, align 8
@.str.12 = private unnamed_addr constant [68 x i8] c"ERROR: double free detected during conn_release_items(): [%d] [%s]\0A\00", align 1
@.str.13 = private unnamed_addr constant [7 x i8] c"binary\00", align 1
@.str.14 = private unnamed_addr constant [6 x i8] c"ascii\00", align 1

; Function Attrs: nounwind uwtable
define dso_local ptr @resp_finish(ptr noundef %0, ptr noundef %1) #0 {
  %3 = alloca ptr, align 8
  %4 = alloca ptr, align 8
  %5 = alloca ptr, align 8
  %6 = alloca ptr, align 8
  store ptr %0, ptr %3, align 8, !tbaa !10
  store ptr %1, ptr %4, align 8, !tbaa !132
  call void @llvm.lifetime.start.p0(i64 8, ptr %5) #15
  %7 = load ptr, ptr %4, align 8, !tbaa !132
  %8 = getelementptr inbounds nuw %struct._mc_resp, ptr %7, i32 0, i32 1
  %9 = load ptr, ptr %8, align 8, !tbaa !138
  store ptr %9, ptr %5, align 8, !tbaa !132
  %10 = load ptr, ptr %4, align 8, !tbaa !132
  %11 = getelementptr inbounds nuw %struct._mc_resp, ptr %10, i32 0, i32 6
  %12 = load ptr, ptr %11, align 8, !tbaa !139
  %13 = icmp ne ptr %12, null
  br i1 %13, label %14, label %20

14:                                               ; preds = %2
  %15 = load ptr, ptr %4, align 8, !tbaa !132
  %16 = getelementptr inbounds nuw %struct._mc_resp, ptr %15, i32 0, i32 6
  %17 = load ptr, ptr %16, align 8, !tbaa !139
  call void @item_remove(ptr noundef %17)
  %18 = load ptr, ptr %4, align 8, !tbaa !132
  %19 = getelementptr inbounds nuw %struct._mc_resp, ptr %18, i32 0, i32 6
  store ptr null, ptr %19, align 8, !tbaa !139
  br label %20

20:                                               ; preds = %14, %2
  %21 = load ptr, ptr %4, align 8, !tbaa !132
  %22 = getelementptr inbounds nuw %struct._mc_resp, ptr %21, i32 0, i32 4
  %23 = load ptr, ptr %22, align 8, !tbaa !140
  %24 = icmp ne ptr %23, null
  br i1 %24, label %25, label %29

25:                                               ; preds = %20
  %26 = load ptr, ptr %4, align 8, !tbaa !132
  %27 = getelementptr inbounds nuw %struct._mc_resp, ptr %26, i32 0, i32 4
  %28 = load ptr, ptr %27, align 8, !tbaa !140
  call void @free(ptr noundef %28) #15
  br label %29

29:                                               ; preds = %25, %20
  %30 = load ptr, ptr %4, align 8, !tbaa !132
  %31 = getelementptr inbounds nuw %struct._mc_resp, ptr %30, i32 0, i32 5
  %32 = load ptr, ptr %31, align 8, !tbaa !141
  %33 = icmp ne ptr %32, null
  br i1 %33, label %34, label %50

34:                                               ; preds = %29
  call void @llvm.lifetime.start.p0(i64 8, ptr %6) #15
  %35 = load ptr, ptr %4, align 8, !tbaa !132
  %36 = getelementptr inbounds nuw %struct._mc_resp, ptr %35, i32 0, i32 5
  %37 = load ptr, ptr %36, align 8, !tbaa !141
  store ptr %37, ptr %6, align 8, !tbaa !102
  %38 = load ptr, ptr %6, align 8, !tbaa !102
  %39 = getelementptr inbounds nuw %struct._io_pending_t, ptr %38, i32 0, i32 7
  %40 = load ptr, ptr %39, align 8, !tbaa !142
  %41 = load ptr, ptr %6, align 8, !tbaa !102
  call void %40(ptr noundef %41)
  %42 = load ptr, ptr %3, align 8, !tbaa !10
  %43 = getelementptr inbounds nuw %struct.conn, ptr %42, i32 0, i32 44
  %44 = load ptr, ptr %43, align 8, !tbaa !32
  %45 = getelementptr inbounds nuw %struct.LIBEVENT_THREAD, ptr %44, i32 0, i32 14
  %46 = load ptr, ptr %45, align 8, !tbaa !143
  %47 = load ptr, ptr %6, align 8, !tbaa !102
  call void @do_cache_free(ptr noundef %46, ptr noundef %47)
  %48 = load ptr, ptr %4, align 8, !tbaa !132
  %49 = getelementptr inbounds nuw %struct._mc_resp, ptr %48, i32 0, i32 5
  store ptr null, ptr %49, align 8, !tbaa !141
  call void @llvm.lifetime.end.p0(i64 8, ptr %6) #15
  br label %50

50:                                               ; preds = %34, %29
  %51 = load ptr, ptr %3, align 8, !tbaa !10
  %52 = getelementptr inbounds nuw %struct.conn, ptr %51, i32 0, i32 22
  %53 = load ptr, ptr %52, align 8, !tbaa !74
  %54 = load ptr, ptr %4, align 8, !tbaa !132
  %55 = icmp eq ptr %53, %54
  br i1 %55, label %56, label %60

56:                                               ; preds = %50
  %57 = load ptr, ptr %5, align 8, !tbaa !132
  %58 = load ptr, ptr %3, align 8, !tbaa !10
  %59 = getelementptr inbounds nuw %struct.conn, ptr %58, i32 0, i32 22
  store ptr %57, ptr %59, align 8, !tbaa !74
  br label %60

60:                                               ; preds = %56, %50
  %61 = load ptr, ptr %3, align 8, !tbaa !10
  %62 = getelementptr inbounds nuw %struct.conn, ptr %61, i32 0, i32 21
  %63 = load ptr, ptr %62, align 8, !tbaa !136
  %64 = load ptr, ptr %4, align 8, !tbaa !132
  %65 = icmp eq ptr %63, %64
  br i1 %65, label %66, label %69

66:                                               ; preds = %60
  %67 = load ptr, ptr %3, align 8, !tbaa !10
  %68 = getelementptr inbounds nuw %struct.conn, ptr %67, i32 0, i32 21
  store ptr null, ptr %68, align 8, !tbaa !136
  br label %69

69:                                               ; preds = %66, %60
  %70 = load ptr, ptr %3, align 8, !tbaa !10
  %71 = getelementptr inbounds nuw %struct.conn, ptr %70, i32 0, i32 44
  %72 = load ptr, ptr %71, align 8, !tbaa !32
  %73 = load ptr, ptr %4, align 8, !tbaa !132
  call void @resp_free(ptr noundef %72, ptr noundef %73)
  %74 = load ptr, ptr %5, align 8, !tbaa !132
  call void @llvm.lifetime.end.p0(i64 8, ptr %5) #15
  ret ptr %74
}

; Function Attrs: nounwind uwtable
define dso_local void @conn_release_items(ptr noundef %0) #0 {
  %2 = alloca ptr, align 8
  %3 = alloca ptr, align 8
  store ptr %0, ptr %2, align 8, !tbaa !10
  %4 = load ptr, ptr %2, align 8, !tbaa !10
  %5 = getelementptr inbounds nuw %struct.conn, ptr %4, i32 0, i32 25
  %6 = load ptr, ptr %5, align 8, !tbaa !78
  %7 = icmp ne ptr %6, null
  br i1 %7, label %8, label %26

8:                                                ; preds = %1
  %9 = load ptr, ptr %2, align 8, !tbaa !10
  %10 = getelementptr inbounds nuw %struct.conn, ptr %9, i32 0, i32 8
  %11 = load i8, ptr %10, align 2, !tbaa !77, !range !59, !noundef !60
  %12 = trunc i8 %11 to i1
  br i1 %12, label %13, label %19

13:                                               ; preds = %8
  %14 = load ptr, ptr %2, align 8, !tbaa !10
  %15 = getelementptr inbounds nuw %struct.conn, ptr %14, i32 0, i32 25
  %16 = load ptr, ptr %15, align 8, !tbaa !78
  call void @free(ptr noundef %16) #15
  %17 = load ptr, ptr %2, align 8, !tbaa !10
  %18 = getelementptr inbounds nuw %struct.conn, ptr %17, i32 0, i32 8
  store i8 0, ptr %18, align 2, !tbaa !77
  br label %23

19:                                               ; preds = %8
  %20 = load ptr, ptr %2, align 8, !tbaa !10
  %21 = getelementptr inbounds nuw %struct.conn, ptr %20, i32 0, i32 25
  %22 = load ptr, ptr %21, align 8, !tbaa !78
  call void @item_remove(ptr noundef %22)
  br label %23

23:                                               ; preds = %19, %13
  %24 = load ptr, ptr %2, align 8, !tbaa !10
  %25 = getelementptr inbounds nuw %struct.conn, ptr %24, i32 0, i32 25
  store ptr null, ptr %25, align 8, !tbaa !78
  br label %26

26:                                               ; preds = %23, %1
  %27 = load ptr, ptr %2, align 8, !tbaa !10
  %28 = getelementptr inbounds nuw %struct.conn, ptr %27, i32 0, i32 22
  %29 = load ptr, ptr %28, align 8, !tbaa !74
  %30 = icmp ne ptr %29, null
  br i1 %30, label %31, label %63

31:                                               ; preds = %26
  call void @llvm.lifetime.start.p0(i64 8, ptr %3) #15
  %32 = load ptr, ptr %2, align 8, !tbaa !10
  %33 = getelementptr inbounds nuw %struct.conn, ptr %32, i32 0, i32 22
  %34 = load ptr, ptr %33, align 8, !tbaa !74
  store ptr %34, ptr %3, align 8, !tbaa !132
  br label %35

35:                                               ; preds = %58, %31
  %36 = load ptr, ptr %3, align 8, !tbaa !132
  %37 = icmp ne ptr %36, null
  br i1 %37, label %38, label %62

38:                                               ; preds = %35
  %39 = load ptr, ptr %3, align 8, !tbaa !132
  %40 = getelementptr inbounds nuw %struct._mc_resp, ptr %39, i32 0, i32 13
  %41 = load i8, ptr %40, align 8, !tbaa !133, !range !59, !noundef !60
  %42 = trunc i8 %41 to i1
  br i1 %42, label %43, label %58

43:                                               ; preds = %38
  %44 = load ptr, ptr @stderr, align 8, !tbaa !52
  %45 = load ptr, ptr %2, align 8, !tbaa !10
  %46 = getelementptr inbounds nuw %struct.conn, ptr %45, i32 0, i32 1
  %47 = load i32, ptr %46, align 8, !tbaa !54
  %48 = load ptr, ptr %2, align 8, !tbaa !10
  %49 = getelementptr inbounds nuw %struct.conn, ptr %48, i32 0, i32 29
  %50 = load i32, ptr %49, align 4, !tbaa !71
  %51 = icmp eq i32 %50, 4
  %52 = select i1 %51, ptr @.str.13, ptr @.str.14
  %53 = call i32 (ptr, ptr, ...) @fprintf(ptr noundef %44, ptr noundef @.str.12, i32 noundef %47, ptr noundef %52) #15
  %54 = load ptr, ptr %2, align 8, !tbaa !10
  %55 = getelementptr inbounds nuw %struct.conn, ptr %54, i32 0, i32 22
  store ptr null, ptr %55, align 8, !tbaa !74
  %56 = load ptr, ptr %2, align 8, !tbaa !10
  %57 = getelementptr inbounds nuw %struct.conn, ptr %56, i32 0, i32 21
  store ptr null, ptr %57, align 8, !tbaa !136
  br label %62

58:                                               ; preds = %38
  %59 = load ptr, ptr %2, align 8, !tbaa !10
  %60 = load ptr, ptr %3, align 8, !tbaa !132
  %61 = call ptr @resp_finish(ptr noundef %59, ptr noundef %60)
  store ptr %61, ptr %3, align 8, !tbaa !132
  br label %35, !llvm.loop !137

62:                                               ; preds = %43, %35
  call void @llvm.lifetime.end.p0(i64 8, ptr %3) #15
  br label %63

63:                                               ; preds = %62, %26
  ret void
}