; Function Attrs: nounwind uwtable
define dso_local void @conn_release_items(ptr noundef captures(none) %0) local_unnamed_addr #1 {
  %2 = getelementptr inbounds nuw i8, ptr %0, i64 240
  %3 = load ptr, ptr %2, align 8, !tbaa !83
  %.not = icmp eq ptr %3, null
  br i1 %.not, label %11, label %4

4:                                                ; preds = %1
  %5 = getelementptr inbounds nuw i8, ptr %0, i64 18
  %6 = load i8, ptr %5, align 2, !tbaa !84, !range !60, !noundef !61
  %7 = trunc nuw i8 %6 to i1
  br i1 %7, label %8, label %9

8:                                                ; preds = %4
  tail call void @free(ptr noundef nonnull %3) #34
  store i8 0, ptr %5, align 2, !tbaa !84
  br label %10

9:                                                ; preds = %4
  tail call void @item_remove(ptr noundef nonnull %3) #34
  br label %10

10:                                               ; preds = %9, %8
  store ptr null, ptr %2, align 8, !tbaa !83
  br label %11

11:                                               ; preds = %10, %1
  %12 = getelementptr inbounds nuw i8, ptr %0, i64 216
  %13 = load ptr, ptr %12, align 8, !tbaa !80
  %.not18 = icmp eq ptr %13, null
  br i1 %.not18, label %.loopexit, label %.preheader

.preheader:                                       ; preds = %11
  %14 = getelementptr inbounds nuw i8, ptr %0, i64 400
  %15 = getelementptr inbounds nuw i8, ptr %0, i64 208
  br label %16

16:                                               ; preds = %.preheader, %resp_finish.exit
  %.020 = phi ptr [ %13, %.preheader ], [ %31, %resp_finish.exit ]
  %17 = getelementptr inbounds nuw i8, ptr %.020, i64 120
  %18 = load i8, ptr %17, align 8, !tbaa !156, !range !60, !noundef !61
  %19 = trunc nuw i8 %18 to i1
  br i1 %19, label %20, label %29

20:                                               ; preds = %16
  %21 = load ptr, ptr @stderr, align 8, !tbaa !50
  %22 = getelementptr inbounds nuw i8, ptr %0, i64 8
  %23 = load i32, ptr %22, align 8, !tbaa !52
  %24 = getelementptr inbounds nuw i8, ptr %0, i64 260
  %25 = load i32, ptr %24, align 4, !tbaa !67
  %26 = icmp eq i32 %25, 4
  %27 = select i1 %26, ptr @.str.13, ptr @.str.14
  %28 = tail call i32 (ptr, ptr, ...) @fprintf(ptr noundef %21, ptr noundef nonnull @.str.12, i32 noundef %23, ptr noundef nonnull %27) #36
  tail call void @llvm.memset.p0.i64(ptr noundef nonnull align 8 dereferenceable(16) %15, i8 0, i64 16, i1 false)
  br label %.loopexit

29:                                               ; preds = %16
  %30 = getelementptr inbounds nuw i8, ptr %.020, i64 8
  %31 = load ptr, ptr %30, align 8, !tbaa !110
  %32 = getelementptr inbounds nuw i8, ptr %.020, i64 40
  %33 = load ptr, ptr %32, align 8, !tbaa !111
  %.not.i = icmp eq ptr %33, null
  br i1 %.not.i, label %35, label %34

34:                                               ; preds = %29
  tail call void @item_remove(ptr noundef nonnull %33) #34
  store ptr null, ptr %32, align 8, !tbaa !111
  br label %35

35:                                               ; preds = %34, %29
  %36 = getelementptr inbounds nuw i8, ptr %.020, i64 24
  %37 = load ptr, ptr %36, align 8, !tbaa !112
  %.not25.i = icmp eq ptr %37, null
  br i1 %.not25.i, label %39, label %38

38:                                               ; preds = %35
  tail call void @free(ptr noundef nonnull %37) #34
  br label %39

39:                                               ; preds = %38, %35
  %40 = getelementptr inbounds nuw i8, ptr %.020, i64 32
  %41 = load ptr, ptr %40, align 8, !tbaa !113
  %.not26.i = icmp eq ptr %41, null
  br i1 %.not26.i, label %48, label %42

42:                                               ; preds = %39
  %43 = getelementptr inbounds nuw i8, ptr %41, i64 40
  %44 = load ptr, ptr %43, align 8, !tbaa !114
  tail call void %44(ptr noundef nonnull %41) #34
  %45 = load ptr, ptr %14, align 8, !tbaa !30
  %46 = getelementptr inbounds nuw i8, ptr %45, i64 6952
  %47 = load ptr, ptr %46, align 8, !tbaa !117
  tail call void @do_cache_free(ptr noundef %47, ptr noundef nonnull %41) #34
  store ptr null, ptr %40, align 8, !tbaa !113
  br label %48

48:                                               ; preds = %42, %39
  %49 = load ptr, ptr %12, align 8, !tbaa !80
  %50 = icmp eq ptr %49, %.020
  br i1 %50, label %51, label %52

51:                                               ; preds = %48
  store ptr %31, ptr %12, align 8, !tbaa !80
  br label %52

52:                                               ; preds = %51, %48
  %53 = load ptr, ptr %15, align 8, !tbaa !118
  %54 = icmp eq ptr %53, %.020
  br i1 %54, label %55, label %resp_finish.exit

55:                                               ; preds = %52
  store ptr null, ptr %15, align 8, !tbaa !118
  br label %resp_finish.exit

resp_finish.exit:                                 ; preds = %52, %55
  %56 = load ptr, ptr %14, align 8, !tbaa !30
  tail call void @resp_free(ptr noundef %56, ptr noundef nonnull %.020)
  %.not19 = icmp eq ptr %31, null
  br i1 %.not19, label %.loopexit, label %16, !llvm.loop !157

.loopexit:                                        ; preds = %resp_finish.exit, %20, %11
  ret void
}